; Function Attrs: mustprogress uwtable
define hidden void @_ZN10polynomial7manager8lex_sortEPNS_10polynomialE(ptr nocapture noundef nonnull readonly align 8 dereferenceable(8) %this, ptr noundef %p) local_unnamed_addr #4 align 2 {
entry:
  %0 = load ptr, ptr %this, align 8
  %m_lex_sort_buckets.i = getelementptr inbounds i8, ptr %0, i64 712
  %m_lex_sort_permutation.i = getelementptr inbounds i8, ptr %0, i64 720
  %m_lex_sorted.i.i = getelementptr inbounds i8, ptr %p, i64 4
  %bf.load.i.i = load i32, ptr %m_lex_sorted.i.i, align 4
  %tobool.not.i.i = icmp sgt i32 %bf.load.i.i, -1
  br i1 %tobool.not.i.i, label %if.end.i.i, label %_ZN10polynomial7manager3imp8lex_sortEPKNS_10polynomialE.exit

if.end.i.i:                                       ; preds = %entry
  %m_size.i.i.i = getelementptr inbounds i8, ptr %p, i64 8
  %1 = load i32, ptr %m_size.i.i.i, align 8
  %cmp.i.i = icmp ult i32 %1, 2
  br i1 %cmp.i.i, label %return.sink.split.i.i, label %if.end5.i.i

if.end5.i.i:                                      ; preds = %if.end.i.i
  %m_ms.i.i.i = getelementptr inbounds i8, ptr %p, i64 24
  %2 = load ptr, ptr %m_ms.i.i.i, align 8
  %3 = load ptr, ptr %2, align 8
  %m_size.i2.i.i = getelementptr inbounds i8, ptr %3, i64 12
  %4 = load i32, ptr %m_size.i2.i.i, align 4
  %cmp.i.i.i = icmp eq i32 %4, 0
  br i1 %cmp.i.i.i, label %_ZNK10polynomial8monomial7max_varEv.exit.i.i, label %if.end.i.i.i

if.end.i.i.i:                                     ; preds = %if.end5.i.i
  %sub.i.i.i = add i32 %4, -1
  %m_powers.i.i.i.i.i = getelementptr inbounds i8, ptr %3, i64 20
  %idxprom.i.i.i.i.i = zext i32 %sub.i.i.i to i64
  %arrayidx.i.i.i.i.i = getelementptr inbounds [0 x %"class.polynomial::power"], ptr %m_powers.i.i.i.i.i, i64 0, i64 %idxprom.i.i.i.i.i
  %5 = load i32, ptr %arrayidx.i.i.i.i.i, align 4
  br label %_ZNK10polynomial8monomial7max_varEv.exit.i.i

_ZNK10polynomial8monomial7max_varEv.exit.i.i:     ; preds = %if.end.i.i.i, %if.end5.i.i
  %retval.0.i.i.i = phi i32 [ %5, %if.end.i.i.i ], [ -1, %if.end5.i.i ]
  tail call void @_ZN10polynomial10polynomial8lex_sortEjjjR6vectorI7svectorIjjELb1EjERS3_(ptr noundef nonnull align 8 dereferenceable(32) %p, i32 noundef 0, i32 noundef %1, i32 noundef %retval.0.i.i.i, ptr noundef nonnull align 8 dereferenceable(8) %m_lex_sort_buckets.i, ptr noundef nonnull align 8 dereferenceable(8) %m_lex_sort_permutation.i)
  %bf.load10.i.i = load i32, ptr %m_lex_sorted.i.i, align 4
  br label %return.sink.split.i.i

return.sink.split.i.i:                            ; preds = %_ZNK10polynomial8monomial7max_varEv.exit.i.i, %if.end.i.i
  %bf.load10.sink.i.i = phi i32 [ %bf.load10.i.i, %_ZNK10polynomial8monomial7max_varEv.exit.i.i ], [ %bf.load.i.i, %if.end.i.i ]
  %bf.set12.i.i = or i32 %bf.load10.sink.i.i, -2147483648
  store i32 %bf.set12.i.i, ptr %m_lex_sorted.i.i, align 4
  br label %_ZN10polynomial7manager3imp8lex_sortEPKNS_10polynomialE.exit

_ZN10polynomial7manager3imp8lex_sortEPKNS_10polynomialE.exit: ; preds = %entry, %return.sink.split.i.i
  ret void
}